target datalayout = "e-m:e-p270:32:32-p271:32:32-p272:64:64-i64:64-i128:128-f80:128-n8:16:32:64-S128"
target triple = "x86_64-pc-linux-gnu"

%struct.archive_string = type { ptr, i64, i64 }
%struct.archive_mstring = type { %struct.archive_string, %struct.archive_string, %struct.archive_wstring, %struct.archive_string, i32 }
%struct.archive_wstring = type { ptr, i64, i64 }
%struct.match_file = type { %struct.archive_rb_node, ptr, %struct.archive_mstring, i32, i64, i64, i64, i64 }
%struct.archive_rb_node = type { [2 x ptr], i64 }

; Function Attrs: nounwind uwtable
define internal i32 @cmp_key_mbs(ptr noundef %0, ptr noundef %1) #0 {
  %3 = alloca i32, align 4
  %4 = alloca ptr, align 8
  %5 = alloca ptr, align 8
  %6 = alloca ptr, align 8
  %7 = alloca ptr, align 8
  %8 = alloca i32, align 4
  store ptr %0, ptr %4, align 8, !tbaa !118
  store ptr %1, ptr %5, align 8, !tbaa !62
  call void @llvm.lifetime.start.p0(i64 8, ptr %6) #9
  %9 = load ptr, ptr %4, align 8, !tbaa !118
  %10 = ptrtoint ptr %9 to i64
  %11 = inttoptr i64 %10 to ptr
  store ptr %11, ptr %6, align 8, !tbaa !54
  call void @llvm.lifetime.start.p0(i64 8, ptr %7) #9
  %12 = load ptr, ptr %6, align 8, !tbaa !54
  %13 = getelementptr inbounds nuw %struct.match_file, ptr %12, i32 0, i32 2
  %14 = call i32 @archive_mstring_get_mbs(ptr noundef null, ptr noundef %13, ptr noundef %7)
  %15 = load ptr, ptr %7, align 8, !tbaa !94
  %16 = icmp eq ptr %15, null
  br i1 %16, label %17, label %18

17:                                               ; preds = %2
  store i32 -1, ptr %3, align 4
  store i32 1, ptr %8, align 4
  br label %22

18:                                               ; preds = %2
  %19 = load ptr, ptr %7, align 8, !tbaa !94
  %20 = load ptr, ptr %5, align 8, !tbaa !62
  %21 = call i32 @strcmp(ptr noundef %19, ptr noundef %20) #11
  store i32 %21, ptr %3, align 4
  store i32 1, ptr %8, align 4
  br label %22

22:                                               ; preds = %18, %17
  call void @llvm.lifetime.end.p0(i64 8, ptr %7) #9
  call void @llvm.lifetime.end.p0(i64 8, ptr %6) #9
  %23 = load i32, ptr %3, align 4
  ret i32 %23
}