; Function Attrs: nounwind uwtable
define internal i32 @cmp_key_mbs(ptr noundef %0, ptr noundef readonly captures(none) %1) #0 {
  %3 = alloca ptr, align 8
  call void @llvm.lifetime.start.p0(i64 8, ptr nonnull %3) #14
  %4 = getelementptr inbounds nuw i8, ptr %0, i64 32
  %5 = call i32 @archive_mstring_get_mbs(ptr noundef null, ptr noundef nonnull %4, ptr noundef nonnull %3) #14
  %6 = load ptr, ptr %3, align 8, !tbaa !52
  %7 = icmp eq ptr %6, null
  br i1 %7, label %10, label %8

8:                                                ; preds = %2
  %9 = call i32 @strcmp(ptr noundef nonnull dereferenceable(1) %6, ptr noundef nonnull dereferenceable(1) %1) #16
  br label %10

10:                                               ; preds = %2, %8
  %.0 = phi i32 [ %9, %8 ], [ -1, %2 ]
  call void @llvm.lifetime.end.p0(i64 8, ptr nonnull %3) #14
  ret i32 %.0
}